target datalayout = "e-m:e-p270:32:32-p271:32:32-p272:64:64-i64:64-i128:128-f80:128-n8:16:32:64-S128"
target triple = "x86_64-pc-linux-gnu"

@hf_kafka_topic_name = internal global i32 0, align 4
@.str.558 = private unnamed_addr constant [6 x i8] c"Topic\00", align 1
@ett_kafka_topic = internal global i32 0, align 4
@ett_kafka_partitions = internal global i32 0, align 4
@.str.671 = private unnamed_addr constant [11 x i8] c"Partitions\00", align 1

; Function Attrs: null_pointer_is_valid sspstrong uwtable
define internal i32 @dissect_kafka_elect_leaders_response_topic(ptr noundef %0, ptr noundef %1, ptr noundef %2, i32 noundef %3, i16 noundef signext %4) #0 {
  %6 = alloca ptr, align 8
  %7 = alloca ptr, align 8
  %8 = alloca ptr, align 8
  %9 = alloca i32, align 4
  %10 = alloca i16, align 2
  %11 = alloca ptr, align 8
  %12 = alloca ptr, align 8
  %13 = alloca ptr, align 8
  %14 = alloca ptr, align 8
  store ptr %0, ptr %6, align 8
  store ptr %1, ptr %7, align 8
  store ptr %2, ptr %8, align 8
  store i32 %3, ptr %9, align 4
  store i16 %4, ptr %10, align 2
  call void @llvm.lifetime.start.p0(i64 8, ptr %11) #12
  call void @llvm.lifetime.start.p0(i64 8, ptr %12) #12
  call void @llvm.lifetime.start.p0(i64 8, ptr %13) #12
  call void @llvm.lifetime.start.p0(i64 8, ptr %14) #12
  %15 = load ptr, ptr %8, align 8
  %16 = load ptr, ptr %6, align 8
  %17 = load i32, ptr %9, align 4
  %18 = load i32, ptr @ett_kafka_topic, align 4
  %19 = call ptr @proto_tree_add_subtree(ptr noundef %15, ptr noundef %16, i32 noundef %17, i32 noundef -1, i32 noundef %18, ptr noundef %11, ptr noundef @.str.558)
  store ptr %19, ptr %13, align 8
  %20 = load ptr, ptr %13, align 8
  %21 = load i32, ptr @hf_kafka_topic_name, align 4
  %22 = load ptr, ptr %6, align 8
  %23 = load ptr, ptr %7, align 8
  %24 = load i32, ptr %9, align 4
  %25 = load i16, ptr %10, align 2
  %26 = sext i16 %25 to i32
  %27 = icmp sge i32 %26, 2
  %28 = zext i1 %27 to i32
  %29 = call i32 @dissect_kafka_string(ptr noundef %20, i32 noundef %21, ptr noundef %22, ptr noundef %23, i32 noundef %24, i32 noundef %28, ptr noundef null, ptr noundef null)
  store i32 %29, ptr %9, align 4
  %30 = load ptr, ptr %13, align 8
  %31 = load ptr, ptr %6, align 8
  %32 = load i32, ptr %9, align 4
  %33 = load i32, ptr @ett_kafka_partitions, align 4
  %34 = call ptr @proto_tree_add_subtree(ptr noundef %30, ptr noundef %31, i32 noundef %32, i32 noundef -1, i32 noundef %33, ptr noundef %12, ptr noundef @.str.671)
  store ptr %34, ptr %14, align 8
  %35 = load ptr, ptr %14, align 8
  %36 = load ptr, ptr %6, align 8
  %37 = load ptr, ptr %7, align 8
  %38 = load i32, ptr %9, align 4
  %39 = load i16, ptr %10, align 2
  %40 = sext i16 %39 to i32
  %41 = icmp sge i32 %40, 2
  %42 = zext i1 %41 to i32
  %43 = load i16, ptr %10, align 2
  %44 = call i32 @dissect_kafka_array(ptr noundef %35, ptr noundef %36, ptr noundef %37, i32 noundef %38, i32 noundef %42, i16 noundef signext %43, ptr noundef @dissect_kafka_elect_leaders_response_partition, ptr noundef null)
  store i32 %44, ptr %9, align 4
  %45 = load ptr, ptr %12, align 8
  %46 = load ptr, ptr %6, align 8
  %47 = load i32, ptr %9, align 4
  call void @proto_item_set_end(ptr noundef %45, ptr noundef %46, i32 noundef %47)
  %48 = load i16, ptr %10, align 2
  %49 = sext i16 %48 to i32
  %50 = icmp sge i32 %49, 2
  br i1 %50, label %51, label %57

51:                                               ; preds = %5
  %52 = load ptr, ptr %6, align 8
  %53 = load ptr, ptr %7, align 8
  %54 = load ptr, ptr %13, align 8
  %55 = load i32, ptr %9, align 4
  %56 = call i32 @dissect_kafka_tagged_fields(ptr noundef %52, ptr noundef %53, ptr noundef %54, i32 noundef %55, i16 noundef signext 0)
  store i32 %56, ptr %9, align 4
  br label %57

57:                                               ; preds = %51, %5
  %58 = load ptr, ptr %11, align 8
  %59 = load ptr, ptr %6, align 8
  %60 = load i32, ptr %9, align 4
  call void @proto_item_set_end(ptr noundef %58, ptr noundef %59, i32 noundef %60)
  %61 = load i32, ptr %9, align 4
  call void @llvm.lifetime.end.p0(i64 8, ptr %14) #12
  call void @llvm.lifetime.end.p0(i64 8, ptr %13) #12
  call void @llvm.lifetime.end.p0(i64 8, ptr %12) #12
  call void @llvm.lifetime.end.p0(i64 8, ptr %11) #12
  ret i32 %61
}