; Function Attrs: null_pointer_is_valid sspstrong uwtable
define internal noundef i32 @dissect_kafka_elect_leaders_response_topic(ptr noundef %0, ptr noundef %1, ptr noundef %2, i32 noundef %3, i16 noundef signext %4) #0 {
  %6 = alloca ptr, align 8
  %7 = alloca ptr, align 8
  call void @llvm.lifetime.start.p0(i64 8, ptr nonnull %6) #9
  call void @llvm.lifetime.start.p0(i64 8, ptr nonnull %7) #9
  %8 = load i32, ptr @ett_kafka_topic, align 4
  %9 = call ptr @proto_tree_add_subtree(ptr noundef %2, ptr noundef %0, i32 noundef %3, i32 noundef -1, i32 noundef %8, ptr noundef nonnull %6, ptr noundef nonnull @.str.558)
  %10 = load i32, ptr @hf_kafka_topic_name, align 4
  %11 = icmp sgt i16 %4, 1
  %12 = zext i1 %11 to i32
  %13 = call fastcc i32 @dissect_kafka_string(ptr noundef %9, i32 noundef %10, ptr noundef %0, ptr noundef %1, i32 noundef %3, i32 noundef %12, ptr noundef null, ptr noundef null)
  %14 = load i32, ptr @ett_kafka_partitions, align 4
  %15 = call ptr @proto_tree_add_subtree(ptr noundef %9, ptr noundef %0, i32 noundef %13, i32 noundef -1, i32 noundef %14, ptr noundef nonnull %7, ptr noundef nonnull @.str.671)
  %16 = call fastcc i32 @dissect_kafka_array(ptr noundef %15, ptr noundef %0, ptr noundef %1, i32 noundef %13, i32 noundef %12, i16 noundef signext %4, ptr noundef nonnull @dissect_kafka_elect_leaders_response_partition, ptr noundef null)
  %17 = load ptr, ptr %7, align 8
  call void @proto_item_set_end(ptr noundef %17, ptr noundef %0, i32 noundef %16)
  br i1 %11, label %18, label %20

18:                                               ; preds = %5
  %19 = call fastcc i32 @dissect_kafka_tagged_fields(ptr noundef %0, ptr noundef %1, ptr noundef %9, i32 noundef %16)
  br label %20

20:                                               ; preds = %18, %5
  %.0 = phi i32 [ %19, %18 ], [ %16, %5 ]
  %21 = load ptr, ptr %6, align 8
  call void @proto_item_set_end(ptr noundef %21, ptr noundef %0, i32 noundef %.0)
  call void @llvm.lifetime.end.p0(i64 8, ptr nonnull %7) #9
  call void @llvm.lifetime.end.p0(i64 8, ptr nonnull %6) #9
  ret i32 %.0
}